target datalayout = "e-m:e-p270:32:32-p271:32:32-p272:64:64-i64:64-i128:128-f80:128-n8:16:32:64-S128"
target triple = "x86_64-pc-linux-gnu"

%struct.rlc_channel = type { i32, i16, i16, i8, i16, i8, i8, i32, i32 }
%struct._packet_info = type { ptr, ptr, i32, i32, %struct.nstime_t, %struct.nstime_t, %struct.nstime_t, i8, ptr, ptr, ptr, ptr, %struct._address, %struct._address, %struct._address, %struct._address, %struct._address, %struct._address, i32, ptr, i8, [3 x i8], %struct.anon, i32, i32, i32, i32, ptr, i8, ptr, ptr, i16, i16, i32, i32, i16, i32, i32, ptr, ptr, ptr, i8, i8, i16, i16, i16, i32, i16, i16, ptr, ptr, ptr, ptr, ptr, i32, i32 }
%struct.nstime_t = type { i64, i32 }
%struct._address = type { i32, i32, ptr, ptr }
%struct.anon = type { i8, [3 x i8] }
%struct.fp_info = type { i32, i32, i8, i16, i8, i8, i32, i8, i32, [64 x i32], [64 x i32], i32, [16 x i8], [16 x i32], [16 x i32], i8, i32, i32, i32, i16, i16, i32, ptr, ptr, i32, i32, [8 x i8], i32, i32, i32, i8 }
%struct.rlc_info = type { [64 x i32], [64 x i8], [64 x i8], [64 x i32], [64 x i8], [64 x i8] }
%struct.atm_phdr = type { i32, i8, i8, i8, i16, i16, i8, i16, i16, i16, i16, i32 }

@proto_umts_rlc = hidden global i32 0, align 4
@proto_fp = external global i32, align 4

; Function Attrs: null_pointer_is_valid sspstrong uwtable
define internal i32 @rlc_channel_assign(ptr noundef %0, i32 noundef %1, ptr noundef %2, ptr noundef %3) #0 {
  %5 = alloca i32, align 4
  %6 = alloca ptr, align 8
  %7 = alloca i32, align 4
  %8 = alloca ptr, align 8
  %9 = alloca ptr, align 8
  %10 = alloca ptr, align 8
  %11 = alloca ptr, align 8
  %12 = alloca i32, align 4
  store ptr %0, ptr %6, align 8
  store i32 %1, ptr %7, align 4
  store ptr %2, ptr %8, align 8
  store ptr %3, ptr %9, align 8
  call void @llvm.lifetime.start.p0(i64 8, ptr %10) #18
  call void @llvm.lifetime.start.p0(i64 8, ptr %11) #18
  %13 = call ptr @wmem_file_scope()
  %14 = load ptr, ptr %8, align 8
  %15 = load i32, ptr @proto_fp, align 4
  %16 = call ptr @p_get_proto_data(ptr noundef %13, ptr noundef %14, i32 noundef %15, i32 noundef 0)
  store ptr %16, ptr %11, align 8
  %17 = call ptr @wmem_file_scope()
  %18 = load ptr, ptr %8, align 8
  %19 = load i32, ptr @proto_umts_rlc, align 4
  %20 = call ptr @p_get_proto_data(ptr noundef %17, ptr noundef %18, i32 noundef %19, i32 noundef 0)
  store ptr %20, ptr %10, align 8
  %21 = load ptr, ptr %11, align 8
  %22 = icmp ne ptr %21, null
  br i1 %22, label %23, label %26

23:                                               ; preds = %4
  %24 = load ptr, ptr %10, align 8
  %25 = icmp ne ptr %24, null
  br i1 %25, label %27, label %26

26:                                               ; preds = %23, %4
  store i32 -1, ptr %5, align 4
  store i32 1, ptr %12, align 4
  br label %113

27:                                               ; preds = %23
  %28 = load ptr, ptr %10, align 8
  %29 = getelementptr inbounds nuw %struct.rlc_info, ptr %28, i32 0, i32 0
  %30 = load ptr, ptr %11, align 8
  %31 = getelementptr inbounds nuw %struct.fp_info, ptr %30, i32 0, i32 16
  %32 = load i32, ptr %31, align 4
  %33 = sext i32 %32 to i64
  %34 = getelementptr [64 x i32], ptr %29, i64 0, i64 %33
  %35 = load i32, ptr %34, align 4
  %36 = icmp ne i32 %35, 0
  br i1 %36, label %37, label %56

37:                                               ; preds = %27
  %38 = load ptr, ptr %10, align 8
  %39 = getelementptr inbounds nuw %struct.rlc_info, ptr %38, i32 0, i32 0
  %40 = load ptr, ptr %11, align 8
  %41 = getelementptr inbounds nuw %struct.fp_info, ptr %40, i32 0, i32 16
  %42 = load i32, ptr %41, align 4
  %43 = sext i32 %42 to i64
  %44 = getelementptr [64 x i32], ptr %39, i64 0, i64 %43
  %45 = load i32, ptr %44, align 4
  %46 = load ptr, ptr %6, align 8
  %47 = getelementptr inbounds nuw %struct.rlc_channel, ptr %46, i32 0, i32 0
  store i32 %45, ptr %47, align 4
  %48 = load ptr, ptr %6, align 8
  %49 = getelementptr inbounds nuw %struct.rlc_channel, ptr %48, i32 0, i32 3
  store i8 0, ptr %49, align 4
  %50 = load ptr, ptr %6, align 8
  %51 = getelementptr inbounds nuw %struct.rlc_channel, ptr %50, i32 0, i32 4
  store i16 0, ptr %51, align 2
  %52 = load ptr, ptr %6, align 8
  %53 = getelementptr inbounds nuw %struct.rlc_channel, ptr %52, i32 0, i32 2
  store i16 0, ptr %53, align 2
  %54 = load ptr, ptr %6, align 8
  %55 = getelementptr inbounds nuw %struct.rlc_channel, ptr %54, i32 0, i32 1
  store i16 0, ptr %55, align 4
  br label %83

56:                                               ; preds = %27
  %57 = load ptr, ptr %9, align 8
  %58 = icmp ne ptr %57, null
  br i1 %58, label %60, label %59

59:                                               ; preds = %56
  store i32 -1, ptr %5, align 4
  store i32 1, ptr %12, align 4
  br label %113

60:                                               ; preds = %56
  %61 = load ptr, ptr %6, align 8
  %62 = getelementptr inbounds nuw %struct.rlc_channel, ptr %61, i32 0, i32 0
  store i32 1, ptr %62, align 4
  %63 = load ptr, ptr %9, align 8
  %64 = getelementptr inbounds nuw %struct.atm_phdr, ptr %63, i32 0, i32 4
  %65 = load i16, ptr %64, align 4
  %66 = load ptr, ptr %6, align 8
  %67 = getelementptr inbounds nuw %struct.rlc_channel, ptr %66, i32 0, i32 1
  store i16 %65, ptr %67, align 4
  %68 = load ptr, ptr %9, align 8
  %69 = getelementptr inbounds nuw %struct.atm_phdr, ptr %68, i32 0, i32 5
  %70 = load i16, ptr %69, align 2
  %71 = load ptr, ptr %6, align 8
  %72 = getelementptr inbounds nuw %struct.rlc_channel, ptr %71, i32 0, i32 2
  store i16 %70, ptr %72, align 2
  %73 = load ptr, ptr %9, align 8
  %74 = getelementptr inbounds nuw %struct.atm_phdr, ptr %73, i32 0, i32 6
  %75 = load i8, ptr %74, align 4
  %76 = load ptr, ptr %6, align 8
  %77 = getelementptr inbounds nuw %struct.rlc_channel, ptr %76, i32 0, i32 3
  store i8 %75, ptr %77, align 4
  %78 = load ptr, ptr %8, align 8
  %79 = getelementptr inbounds nuw %struct._packet_info, ptr %78, i32 0, i32 43
  %80 = load i16, ptr %79, align 2
  %81 = load ptr, ptr %6, align 8
  %82 = getelementptr inbounds nuw %struct.rlc_channel, ptr %81, i32 0, i32 4
  store i16 %80, ptr %82, align 2
  br label %83

83:                                               ; preds = %60, %37
  %84 = load ptr, ptr %10, align 8
  %85 = getelementptr inbounds nuw %struct.rlc_info, ptr %84, i32 0, i32 2
  %86 = load ptr, ptr %11, align 8
  %87 = getelementptr inbounds nuw %struct.fp_info, ptr %86, i32 0, i32 16
  %88 = load i32, ptr %87, align 4
  %89 = sext i32 %88 to i64
  %90 = getelementptr [64 x i8], ptr %85, i64 0, i64 %89
  %91 = load i8, ptr %90, align 1
  %92 = load ptr, ptr %6, align 8
  %93 = getelementptr inbounds nuw %struct.rlc_channel, ptr %92, i32 0, i32 5
  store i8 %91, ptr %93, align 4
  %94 = load ptr, ptr %8, align 8
  %95 = getelementptr inbounds nuw %struct._packet_info, ptr %94, i32 0, i32 46
  %96 = load i32, ptr %95, align 8
  %97 = trunc i32 %96 to i8
  %98 = load ptr, ptr %6, align 8
  %99 = getelementptr inbounds nuw %struct.rlc_channel, ptr %98, i32 0, i32 6
  store i8 %97, ptr %99, align 1
  %100 = load i32, ptr %7, align 4
  %101 = load ptr, ptr %6, align 8
  %102 = getelementptr inbounds nuw %struct.rlc_channel, ptr %101, i32 0, i32 8
  store i32 %100, ptr %102, align 4
  %103 = load ptr, ptr %10, align 8
  %104 = getelementptr inbounds nuw %struct.rlc_info, ptr %103, i32 0, i32 3
  %105 = load ptr, ptr %11, align 8
  %106 = getelementptr inbounds nuw %struct.fp_info, ptr %105, i32 0, i32 16
  %107 = load i32, ptr %106, align 4
  %108 = sext i32 %107 to i64
  %109 = getelementptr [64 x i32], ptr %104, i64 0, i64 %108
  %110 = load i32, ptr %109, align 4
  %111 = load ptr, ptr %6, align 8
  %112 = getelementptr inbounds nuw %struct.rlc_channel, ptr %111, i32 0, i32 7
  store i32 %110, ptr %112, align 4
  store i32 0, ptr %5, align 4
  store i32 1, ptr %12, align 4
  br label %113

113:                                              ; preds = %83, %59, %26
  call void @llvm.lifetime.end.p0(i64 8, ptr %11) #18
  call void @llvm.lifetime.end.p0(i64 8, ptr %10) #18
  %114 = load i32, ptr %5, align 4
  ret i32 %114
}