; Function Attrs: null_pointer_is_valid sspstrong uwtable
define internal fastcc range(i32 -1, 1) i32 @rlc_channel_assign(ptr noundef writeonly captures(none) %0, i32 noundef %1, ptr noundef %2, ptr noundef readonly captures(address_is_null) %3) unnamed_addr #0 {
  %5 = tail call ptr @wmem_file_scope()
  %6 = load i32, ptr @proto_fp, align 4
  %7 = tail call ptr @p_get_proto_data(ptr noundef %5, ptr noundef %2, i32 noundef %6, i32 noundef 0)
  %8 = tail call ptr @wmem_file_scope()
  %9 = load i32, ptr @proto_umts_rlc, align 4
  %10 = tail call ptr @p_get_proto_data(ptr noundef %8, ptr noundef %2, i32 noundef %9, i32 noundef 0)
  %11 = icmp ne ptr %7, null
  %12 = icmp ne ptr %10, null
  %or.cond = select i1 %11, i1 %12, i1 false
  br i1 %or.cond, label %13, label %56

13:                                               ; preds = %4
  %14 = getelementptr inbounds nuw i8, ptr %7, i64 692
  %15 = load i32, ptr %14, align 4
  %16 = sext i32 %15 to i64
  %17 = getelementptr [64 x i32], ptr %10, i64 0, i64 %16
  %18 = load i32, ptr %17, align 4
  %.not = icmp eq i32 %18, 0
  br i1 %.not, label %24, label %19

19:                                               ; preds = %13
  store i32 %18, ptr %0, align 4
  %20 = getelementptr inbounds nuw i8, ptr %0, i64 8
  store i8 0, ptr %20, align 4
  %21 = getelementptr inbounds nuw i8, ptr %0, i64 10
  store i16 0, ptr %21, align 2
  %22 = getelementptr inbounds nuw i8, ptr %0, i64 6
  store i16 0, ptr %22, align 2
  %23 = getelementptr inbounds nuw i8, ptr %0, i64 4
  store i16 0, ptr %23, align 4
  br label %38

24:                                               ; preds = %13
  %.not38 = icmp eq ptr %3, null
  br i1 %.not38, label %56, label %25

25:                                               ; preds = %24
  store i32 1, ptr %0, align 4
  %26 = getelementptr inbounds nuw i8, ptr %3, i64 8
  %27 = load i16, ptr %26, align 4
  %28 = getelementptr inbounds nuw i8, ptr %0, i64 4
  store i16 %27, ptr %28, align 4
  %29 = getelementptr inbounds nuw i8, ptr %3, i64 10
  %30 = load i16, ptr %29, align 2
  %31 = getelementptr inbounds nuw i8, ptr %0, i64 6
  store i16 %30, ptr %31, align 2
  %32 = getelementptr inbounds nuw i8, ptr %3, i64 12
  %33 = load i8, ptr %32, align 4
  %34 = getelementptr inbounds nuw i8, ptr %0, i64 8
  store i8 %33, ptr %34, align 4
  %35 = getelementptr inbounds nuw i8, ptr %2, i64 378
  %36 = load i16, ptr %35, align 2
  %37 = getelementptr inbounds nuw i8, ptr %0, i64 10
  store i16 %36, ptr %37, align 2
  br label %38

38:                                               ; preds = %25, %19
  %39 = getelementptr inbounds nuw i8, ptr %10, i64 320
  %40 = load i32, ptr %14, align 4
  %41 = sext i32 %40 to i64
  %42 = getelementptr [64 x i8], ptr %39, i64 0, i64 %41
  %43 = load i8, ptr %42, align 1
  %44 = getelementptr inbounds nuw i8, ptr %0, i64 12
  store i8 %43, ptr %44, align 4
  %45 = getelementptr inbounds nuw i8, ptr %2, i64 384
  %46 = load i32, ptr %45, align 8
  %47 = trunc i32 %46 to i8
  %48 = getelementptr inbounds nuw i8, ptr %0, i64 13
  store i8 %47, ptr %48, align 1
  %49 = getelementptr inbounds nuw i8, ptr %0, i64 20
  store i32 %1, ptr %49, align 4
  %50 = getelementptr inbounds nuw i8, ptr %10, i64 384
  %51 = load i32, ptr %14, align 4
  %52 = sext i32 %51 to i64
  %53 = getelementptr [64 x i32], ptr %50, i64 0, i64 %52
  %54 = load i32, ptr %53, align 4
  %55 = getelementptr inbounds nuw i8, ptr %0, i64 16
  store i32 %54, ptr %55, align 4
  br label %56

56:                                               ; preds = %24, %4, %38
  %.0 = phi i32 [ 0, %38 ], [ -1, %4 ], [ -1, %24 ]
  ret i32 %.0
}